target datalayout = "e-m:e-p270:32:32-p271:32:32-p272:64:64-i64:64-i128:128-f80:128-n8:16:32:64-S128"
target triple = "x86_64-pc-linux-gnu"

; Function Attrs: nounwind willreturn memory(none) uwtable
define double @ceil(double noundef %0) #0 {
  %2 = alloca double, align 8
  %3 = alloca double, align 8
  store double %0, ptr %2, align 8
  %4 = load double, ptr %2, align 8
  store double %4, ptr %3, align 8
  %5 = load double, ptr %2, align 8
  %6 = call double @modf(double noundef %5, ptr noundef %2) #3
  %7 = load double, ptr %3, align 8
  %8 = fcmp ogt double %7, 0.000000e+00
  br i1 %8, label %9, label %18

9:                                                ; preds = %1
  %10 = load double, ptr %3, align 8
  %11 = load double, ptr %2, align 8
  %12 = fsub double %10, %11
  %13 = call double @llvm.fabs.f64(double %12)
  %14 = fcmp ogt double %13, 0.000000e+00
  br i1 %14, label %15, label %18

15:                                               ; preds = %9
  %16 = load double, ptr %2, align 8
  %17 = fadd double %16, 1.000000e+00
  store double %17, ptr %2, align 8
  br label %18

18:                                               ; preds = %15, %9, %1
  %19 = load double, ptr %2, align 8
  ret double %19
}

; Function Attrs: nounwind
declare double @modf(double noundef, ptr noundef) #1

; Function Attrs: nocallback nofree nosync nounwind speculatable willreturn memory(none)
declare double @llvm.fabs.f64(double) #2


!llvm.module.flags = !{!0, !1, !2, !3, !4, !5}

!0 = !{i32 7, !"Dwarf Version", i32 5}
!1 = !{i32 2, !"Debug Info Version", i32 3}
!2 = !{i32 1, !"wchar_size", i32 4}
!3 = !{i32 8, !"PIC Level", i32 2}
!4 = !{i32 7, !"uwtable", i32 2}
!5 = !{i32 7, !"frame-pointer", i32 2}
