; ModuleID = 'bench/nuttx/original/lib_ceil.c.ll'
source_filename = "bench/nuttx/original/lib_ceil.c.ll"
target datalayout = "e-m:e-p270:32:32-p271:32:32-p272:64:64-i64:64-i128:128-f80:128-n8:16:32:64-S128"
target triple = "x86_64-pc-linux-gnu"

; Function Attrs: mustprogress nofree nosync nounwind willreturn memory(none) uwtable
define double @ceil(double noundef %0) local_unnamed_addr #0 {
  %2 = alloca double, align 8
  store double %0, ptr %2, align 8
  %3 = call double @modf(double noundef %0, ptr noundef nonnull %2) #2
  %4 = fcmp ule double %0, 0.000000e+00
  %.pre = load double, ptr %2, align 8
  %5 = fcmp ueq double %0, %.pre
  %or.cond = select i1 %4, i1 true, i1 %5
  %6 = fadd double %.pre, 1.000000e+00
  %7 = select i1 %or.cond, double %.pre, double %6
  ret double %7
}

; Function Attrs: mustprogress nofree nounwind willreturn memory(argmem: write)
declare double @modf(double noundef, ptr noundef captures(none)) local_unnamed_addr #1


!llvm.module.flags = !{!0, !1, !2, !3, !4, !5}

!0 = !{i32 7, !"Dwarf Version", i32 5}
!1 = !{i32 2, !"Debug Info Version", i32 3}
!2 = !{i32 1, !"wchar_size", i32 4}
!3 = !{i32 8, !"PIC Level", i32 2}
!4 = !{i32 7, !"uwtable", i32 2}
!5 = !{i32 7, !"frame-pointer", i32 2}
